; Function Attrs: nounwind sspstrong uwtable
define internal void @e1000_autoneg_timer(ptr noundef %opaque) #0 {
entry:
  %nic = getelementptr inbounds nuw i8, ptr %opaque, i64 2608
  %0 = load ptr, ptr %nic, align 16
  %call = tail call ptr @qemu_get_queue(ptr noundef %0) #13
  %link_down = getelementptr inbounds nuw i8, ptr %call, i64 8
  %1 = load i32, ptr %link_down, align 8
  %tobool.not = icmp eq i32 %1, 0
  br i1 %tobool.not, label %if.then, label %if.end

if.then:                                          ; preds = %entry
  %mac_reg.i = getelementptr inbounds nuw i8, ptr %opaque, i64 11376
  %phy_reg.i = getelementptr inbounds nuw i8, ptr %opaque, i64 142448
  tail call void @e1000x_update_regs_on_autoneg_done(ptr noundef nonnull %mac_reg.i, ptr noundef nonnull %phy_reg.i) #13
  %2 = load ptr, ptr %nic, align 16
  %call.i = tail call ptr @qemu_get_queue(ptr noundef %2) #13
  tail call void @qemu_flush_queued_packets(ptr noundef %call.i) #13
  %arrayidx.i = getelementptr i8, ptr %opaque, i64 11568
  %3 = load i32, ptr %arrayidx.i, align 16
  %or.i = or i32 %3, 4
  tail call fastcc void @set_interrupt_cause(ptr noundef nonnull %opaque, i32 noundef %or.i)
  br label %if.end

if.end:                                           ; preds = %if.then, %entry
  ret void
}